target datalayout = "e-m:e-p270:32:32-p271:32:32-p272:64:64-i64:64-i128:128-f80:128-n8:16:32:64-S128"
target triple = "x86_64-pc-linux-gnu"

%"struct.vcpkg::StringView" = type { ptr, i64 }

; Function Attrs: mustprogress nounwind uwtable
define linkonce_odr dso_local noundef zeroext i1 @_ZN5vcpkg10ParserBase14is_ascii_digitEDi(i32 noundef zeroext %0) #1 comdat align 2 {
  %2 = alloca i32, align 4
  store i32 %0, ptr %2, align 4, !tbaa !880
  %3 = load i32, ptr %2, align 4, !tbaa !880
  %4 = icmp uge i32 %3, 48
  br i1 %4, label %5, label %8

5:                                                ; preds = %1
  %6 = load i32, ptr %2, align 4, !tbaa !880
  %7 = icmp ule i32 %6, 57
  br label %8

8:                                                ; preds = %5, %1
  %9 = phi i1 [ false, %1 ], [ %7, %5 ]
  ret i1 %9
}

; Function Attrs: mustprogress nounwind uwtable
define linkonce_odr dso_local noundef zeroext i1 @_ZN5vcpkg10ParserBase14is_lower_alphaEDi(i32 noundef zeroext %0) #1 comdat align 2 {
  %2 = alloca i32, align 4
  store i32 %0, ptr %2, align 4, !tbaa !880
  %3 = load i32, ptr %2, align 4, !tbaa !880
  %4 = icmp uge i32 %3, 97
  br i1 %4, label %5, label %8

5:                                                ; preds = %1
  %6 = load i32, ptr %2, align 4, !tbaa !880
  %7 = icmp ule i32 %6, 122
  br label %8

8:                                                ; preds = %5, %1
  %9 = phi i1 [ false, %1 ], [ %7, %5 ]
  ret i1 %9
}

; Function Attrs: mustprogress uwtable
define linkonce_odr dso_local noundef zeroext i1 @_ZN5vcpkg10ParserBase14is_lower_digitEc(i8 noundef signext %0) #0 comdat align 2 {
  %2 = alloca i8, align 1
  store i8 %0, ptr %2, align 1, !tbaa !158
  %3 = load i8, ptr %2, align 1, !tbaa !158
  %4 = sext i8 %3 to i32
  %5 = call noundef zeroext i1 @_ZN5vcpkg10ParserBase14is_lower_alphaEDi(i32 noundef zeroext %4)
  br i1 %5, label %10, label %6

6:                                                ; preds = %1
  %7 = load i8, ptr %2, align 1, !tbaa !158
  %8 = sext i8 %7 to i32
  %9 = call noundef zeroext i1 @_ZN5vcpkg10ParserBase14is_ascii_digitEDi(i32 noundef zeroext %8)
  br label %10

10:                                               ; preds = %6, %1
  %11 = phi i1 [ true, %1 ], [ %9, %6 ]
  ret i1 %11
}

; Function Attrs: mustprogress nounwind uwtable
define linkonce_odr dso_local noundef ptr @_ZNK5vcpkg10StringView3endEv(ptr noundef nonnull align 8 dereferenceable(16) %0) #1 comdat align 2 {
  %2 = alloca ptr, align 8
  store ptr %0, ptr %2, align 8, !tbaa !56
  %3 = load ptr, ptr %2, align 8
  %4 = getelementptr inbounds nuw %"struct.vcpkg::StringView", ptr %3, i32 0, i32 0
  %5 = load ptr, ptr %4, align 8, !tbaa !157
  %6 = getelementptr inbounds nuw %"struct.vcpkg::StringView", ptr %3, i32 0, i32 1
  %7 = load i64, ptr %6, align 8, !tbaa !82
  %8 = getelementptr inbounds nuw i8, ptr %5, i64 %7
  ret ptr %8
}

; Function Attrs: mustprogress nounwind uwtable
define linkonce_odr dso_local noundef ptr @_ZNK5vcpkg10StringView5beginEv(ptr noundef nonnull align 8 dereferenceable(16) %0) #1 comdat align 2 {
  %2 = alloca ptr, align 8
  store ptr %0, ptr %2, align 8, !tbaa !56
  %3 = load ptr, ptr %2, align 8
  %4 = getelementptr inbounds nuw %"struct.vcpkg::StringView", ptr %3, i32 0, i32 0
  %5 = load ptr, ptr %4, align 8, !tbaa !157
  ret ptr %5
}

; Function Attrs: mustprogress uwtable
define dso_local noundef zeroext i1 @_ZN5vcpkg18is_package_patternENS_10StringViewE(ptr %0, i64 %1) #0 {
  %3 = alloca i1, align 1
  %4 = alloca %"struct.vcpkg::StringView", align 8
  %5 = alloca %"struct.vcpkg::StringView", align 8
  %6 = alloca ptr, align 8
  %7 = alloca ptr, align 8
  %8 = alloca i32, align 4
  %9 = getelementptr inbounds nuw { ptr, i64 }, ptr %4, i32 0, i32 0
  store ptr %0, ptr %9, align 8
  %10 = getelementptr inbounds nuw { ptr, i64 }, ptr %4, i32 0, i32 1
  store i64 %1, ptr %10, align 8
  call void @llvm.memcpy.p0.p0.i64(ptr align 8 %5, ptr align 8 %4, i64 16, i1 false), !tbaa.struct !16
  %11 = getelementptr inbounds nuw { ptr, i64 }, ptr %5, i32 0, i32 0
  %12 = load ptr, ptr %11, align 8
  %13 = getelementptr inbounds nuw { ptr, i64 }, ptr %5, i32 0, i32 1
  %14 = load i64, ptr %13, align 8
  %15 = call noundef zeroext i1 @_ZN5vcpkg4Json22IdentifierDeserializer8is_identENS_10StringViewE(ptr %12, i64 %14)
  br i1 %15, label %16, label %17

16:                                               ; preds = %2
  store i1 true, ptr %3, align 1
  br label %68

17:                                               ; preds = %2
  call void @llvm.lifetime.start.p0(i64 8, ptr %6) #18
  %18 = call noundef ptr @_ZNK5vcpkg10StringView5beginEv(ptr noundef nonnull align 8 dereferenceable(16) %4) #18
  store ptr %18, ptr %6, align 8, !tbaa !17
  call void @llvm.lifetime.start.p0(i64 8, ptr %7) #18
  %19 = call noundef ptr @_ZNK5vcpkg10StringView3endEv(ptr noundef nonnull align 8 dereferenceable(16) %4) #18
  store ptr %19, ptr %7, align 8, !tbaa !17
  br label %20

20:                                               ; preds = %57, %17
  %21 = load ptr, ptr %6, align 8, !tbaa !17
  %22 = load ptr, ptr %7, align 8, !tbaa !17
  %23 = icmp eq ptr %21, %22
  br i1 %23, label %24, label %25

24:                                               ; preds = %20
  store i1 false, ptr %3, align 1
  store i32 1, ptr %8, align 4
  br label %67

25:                                               ; preds = %20
  %26 = load ptr, ptr %6, align 8, !tbaa !17
  %27 = load i8, ptr %26, align 1, !tbaa !158
  %28 = call noundef zeroext i1 @_ZN5vcpkg10ParserBase14is_lower_digitEc(i8 noundef signext %27)
  br i1 %28, label %40, label %29

29:                                               ; preds = %25
  %30 = load ptr, ptr %6, align 8, !tbaa !17
  %31 = load i8, ptr %30, align 1, !tbaa !158
  %32 = sext i8 %31 to i32
  %33 = icmp eq i32 %32, 42
  br i1 %33, label %34, label %39

34:                                               ; preds = %29
  %35 = load ptr, ptr %6, align 8, !tbaa !17
  %36 = getelementptr inbounds nuw i8, ptr %35, i32 1
  store ptr %36, ptr %6, align 8, !tbaa !17
  %37 = load ptr, ptr %7, align 8, !tbaa !17
  %38 = icmp eq ptr %36, %37
  store i1 %38, ptr %3, align 1
  store i32 1, ptr %8, align 4
  br label %67

39:                                               ; preds = %29
  store i1 false, ptr %3, align 1
  store i32 1, ptr %8, align 4
  br label %67

40:                                               ; preds = %25
  br label %41

41:                                               ; preds = %49, %40
  %42 = load ptr, ptr %6, align 8, !tbaa !17
  %43 = getelementptr inbounds nuw i8, ptr %42, i32 1
  store ptr %43, ptr %6, align 8, !tbaa !17
  %44 = load ptr, ptr %6, align 8, !tbaa !17
  %45 = load ptr, ptr %7, align 8, !tbaa !17
  %46 = icmp eq ptr %44, %45
  br i1 %46, label %47, label %48

47:                                               ; preds = %41
  store i1 true, ptr %3, align 1
  store i32 1, ptr %8, align 4
  br label %67

48:                                               ; preds = %41
  br label %49

49:                                               ; preds = %48
  %50 = load ptr, ptr %6, align 8, !tbaa !17
  %51 = load i8, ptr %50, align 1, !tbaa !158
  %52 = call noundef zeroext i1 @_ZN5vcpkg10ParserBase14is_lower_digitEc(i8 noundef signext %51)
  br i1 %52, label %41, label %53, !llvm.loop !159

53:                                               ; preds = %49
  %54 = load ptr, ptr %6, align 8, !tbaa !17
  %55 = load i8, ptr %54, align 1, !tbaa !158
  %56 = sext i8 %55 to i32
  switch i32 %56, label %66 [
    i32 45, label %57
    i32 42, label %60
  ]

57:                                               ; preds = %53
  %58 = load ptr, ptr %6, align 8, !tbaa !17
  %59 = getelementptr inbounds nuw i8, ptr %58, i32 1
  store ptr %59, ptr %6, align 8, !tbaa !17
  br label %20, !llvm.loop !161

60:                                               ; preds = %53
  %61 = load ptr, ptr %6, align 8, !tbaa !17
  %62 = getelementptr inbounds nuw i8, ptr %61, i32 1
  store ptr %62, ptr %6, align 8, !tbaa !17
  %63 = load ptr, ptr %6, align 8, !tbaa !17
  %64 = load ptr, ptr %7, align 8, !tbaa !17
  %65 = icmp eq ptr %63, %64
  store i1 %65, ptr %3, align 1
  store i32 1, ptr %8, align 4
  br label %67

66:                                               ; preds = %53
  store i1 false, ptr %3, align 1
  store i32 1, ptr %8, align 4
  br label %67

67:                                               ; preds = %66, %60, %47, %39, %34, %24
  call void @llvm.lifetime.end.p0(i64 8, ptr %7) #18
  call void @llvm.lifetime.end.p0(i64 8, ptr %6) #18
  br label %68

68:                                               ; preds = %67, %16
  %69 = load i1, ptr %3, align 1
  ret i1 %69
}