; Function Attrs: mustprogress uwtable
define dso_local noundef zeroext i1 @_ZN5vcpkg18is_package_patternENS_10StringViewE(ptr %0, i64 %1) local_unnamed_addr #0 {
  %3 = tail call noundef zeroext i1 @_ZN5vcpkg4Json22IdentifierDeserializer8is_identENS_10StringViewE(ptr %0, i64 %1)
  br i1 %3, label %.loopexit, label %4

4:                                                ; preds = %2
  %5 = getelementptr inbounds nuw i8, ptr %0, i64 %1
  %6 = icmp samesign eq i64 %1, 0
  br i1 %6, label %.loopexit, label %.lr.ph

.lr.ph:                                           ; preds = %4, %30
  %.01629 = phi ptr [ %31, %30 ], [ %0, %4 ]
  %7 = load i8, ptr %.01629, align 1, !tbaa !22
  %8 = sext i8 %7 to i32
  %9 = add nsw i32 %8, -97
  %10 = icmp ult i32 %9, 26
  %11 = add nsw i32 %8, -48
  %12 = icmp ult i32 %11, 10
  %13 = select i1 %10, i1 true, i1 %12
  br i1 %13, label %.preheader, label %14

14:                                               ; preds = %.lr.ph
  %15 = icmp eq i8 %7, 42
  br i1 %15, label %16, label %.loopexit

16:                                               ; preds = %14
  %17 = getelementptr inbounds nuw i8, ptr %.01629, i64 1
  %18 = icmp eq ptr %17, %5
  br label %.loopexit

.preheader:                                       ; preds = %.lr.ph, %21
  %.117 = phi ptr [ %19, %21 ], [ %.01629, %.lr.ph ]
  %19 = getelementptr inbounds nuw i8, ptr %.117, i64 1
  %20 = icmp eq ptr %19, %5
  br i1 %20, label %.loopexit, label %21

21:                                               ; preds = %.preheader
  %22 = load i8, ptr %19, align 1, !tbaa !22
  %23 = sext i8 %22 to i32
  %24 = add nsw i32 %23, -97
  %25 = icmp ult i32 %24, 26
  %26 = add nsw i32 %23, -48
  %27 = icmp ult i32 %26, 10
  %28 = select i1 %25, i1 true, i1 %27
  br i1 %28, label %.preheader, label %29, !llvm.loop !231

29:                                               ; preds = %21
  switch i8 %22, label %.loopexit [
    i8 45, label %30
    i8 42, label %33
  ]

30:                                               ; preds = %29
  %31 = getelementptr inbounds nuw i8, ptr %.117, i64 2
  %32 = icmp eq ptr %31, %5
  br i1 %32, label %.loopexit, label %.lr.ph, !llvm.loop !232

33:                                               ; preds = %29
  %34 = getelementptr inbounds nuw i8, ptr %.117, i64 2
  %35 = icmp eq ptr %34, %5
  br label %.loopexit

.loopexit:                                        ; preds = %29, %30, %.preheader, %4, %16, %33, %14, %2
  %.0 = phi i1 [ true, %2 ], [ %35, %33 ], [ %18, %16 ], [ false, %14 ], [ false, %4 ], [ true, %.preheader ], [ false, %30 ], [ false, %29 ]
  ret i1 %.0
}